; Function Attrs: null_pointer_is_valid sspstrong uwtable
define internal noundef i32 @dissect_amqp_1_0_timestamp(ptr noundef %0, ptr readnone captures(none) %1, i32 noundef %2, i32 noundef returned %3, ptr noundef %4, i32 noundef %5) #0 {
  %7 = alloca %struct.nstime_t, align 8
  call void @llvm.lifetime.start.p0(i64 16, ptr nonnull %7) #14
  %8 = tail call i64 @tvb_get_ntoh64(ptr noundef %0, i32 noundef %2)
  %9 = sdiv i64 %8, 1000
  store i64 %9, ptr %7, align 8
  %10 = srem i64 %8, 1000
  %11 = trunc nsw i64 %10 to i32
  %12 = mul nsw i32 %11, 1000000
  %13 = getelementptr inbounds nuw i8, ptr %7, i64 8
  store i32 %12, ptr %13, align 8
  %14 = call ptr @proto_tree_add_time(ptr noundef %4, i32 noundef %5, ptr noundef %0, i32 noundef %2, i32 noundef %3, ptr noundef nonnull %7)
  call void @llvm.lifetime.end.p0(i64 16, ptr nonnull %7) #14
  ret i32 %3
}